target datalayout = "e-m:e-p270:32:32-p271:32:32-p272:64:64-i64:64-i128:128-f80:128-n8:16:32:64-S128"
target triple = "x86_64-pc-linux-gnu"

%struct.png_color_8_struct = type { i8, i8, i8, i8, i8 }
%struct.png_color_16_struct = type { i8, i16, i16, i16, i16 }
%struct.png_colorspace = type { i32, %struct.png_xy, %struct.png_XYZ, i16, i16 }
%struct.png_xy = type { i32, i32, i32, i32, i32, i32, i32, i32 }
%struct.png_XYZ = type { i32, i32, i32, i32, i32, i32, i32, i32, i32 }
%struct.png_info_def = type { i32, i32, i32, i64, ptr, i16, i16, i8, i8, i8, i8, i8, i8, i8, i8, [8 x i8], %struct.png_colorspace, ptr, ptr, i32, i32, i32, ptr, %struct.png_time_struct, %struct.png_color_8_struct, ptr, %struct.png_color_16_struct, %struct.png_color_16_struct, i32, i32, i8, i32, i32, i8, i32, ptr, ptr, ptr, ptr, i32, i32, ptr, ptr, i8, i8, i32, ptr, i32, ptr, i32, i8, ptr, ptr, ptr }
%struct.png_time_struct = type { i16, i8, i8, i8, i8, i8 }

; Function Attrs: nounwind uwtable
define i32 @png_get_cHRM_XYZ(ptr noalias noundef %0, ptr noalias noundef %1, ptr noundef %2, ptr noundef %3, ptr noundef %4, ptr noundef %5, ptr noundef %6, ptr noundef %7, ptr noundef %8, ptr noundef %9, ptr noundef %10) #0 {
  %12 = alloca i32, align 4
  %13 = alloca ptr, align 8
  %14 = alloca ptr, align 8
  %15 = alloca ptr, align 8
  %16 = alloca ptr, align 8
  %17 = alloca ptr, align 8
  %18 = alloca ptr, align 8
  %19 = alloca ptr, align 8
  %20 = alloca ptr, align 8
  %21 = alloca ptr, align 8
  %22 = alloca ptr, align 8
  %23 = alloca ptr, align 8
  store ptr %0, ptr %13, align 8
  store ptr %1, ptr %14, align 8
  store ptr %2, ptr %15, align 8
  store ptr %3, ptr %16, align 8
  store ptr %4, ptr %17, align 8
  store ptr %5, ptr %18, align 8
  store ptr %6, ptr %19, align 8
  store ptr %7, ptr %20, align 8
  store ptr %8, ptr %21, align 8
  store ptr %9, ptr %22, align 8
  store ptr %10, ptr %23, align 8
  %24 = load ptr, ptr %13, align 8
  %25 = icmp ne ptr %24, null
  br i1 %25, label %26, label %146

26:                                               ; preds = %11
  %27 = load ptr, ptr %14, align 8
  %28 = icmp ne ptr %27, null
  br i1 %28, label %29, label %146

29:                                               ; preds = %26
  %30 = load ptr, ptr %14, align 8
  %31 = getelementptr inbounds %struct.png_info_def, ptr %30, i32 0, i32 16
  %32 = getelementptr inbounds %struct.png_colorspace, ptr %31, i32 0, i32 4
  %33 = load i16, ptr %32, align 2
  %34 = zext i16 %33 to i32
  %35 = and i32 %34, 2
  %36 = icmp ne i32 %35, 0
  br i1 %36, label %37, label %146

37:                                               ; preds = %29
  %38 = load ptr, ptr %15, align 8
  %39 = icmp ne ptr %38, null
  br i1 %39, label %40, label %49

40:                                               ; preds = %37
  %41 = load ptr, ptr %14, align 8
  %42 = getelementptr inbounds %struct.png_info_def, ptr %41, i32 0, i32 16
  %43 = getelementptr inbounds %struct.png_colorspace, ptr %42, i32 0, i32 2
  %44 = getelementptr inbounds %struct.png_XYZ, ptr %43, i32 0, i32 0
  %45 = load i32, ptr %44, align 4
  %46 = sitofp i32 %45 to double
  %47 = fmul double 1.000000e-05, %46
  %48 = load ptr, ptr %15, align 8
  store double %47, ptr %48, align 8
  br label %49

49:                                               ; preds = %40, %37
  %50 = load ptr, ptr %16, align 8
  %51 = icmp ne ptr %50, null
  br i1 %51, label %52, label %61

52:                                               ; preds = %49
  %53 = load ptr, ptr %14, align 8
  %54 = getelementptr inbounds %struct.png_info_def, ptr %53, i32 0, i32 16
  %55 = getelementptr inbounds %struct.png_colorspace, ptr %54, i32 0, i32 2
  %56 = getelementptr inbounds %struct.png_XYZ, ptr %55, i32 0, i32 1
  %57 = load i32, ptr %56, align 4
  %58 = sitofp i32 %57 to double
  %59 = fmul double 1.000000e-05, %58
  %60 = load ptr, ptr %16, align 8
  store double %59, ptr %60, align 8
  br label %61

61:                                               ; preds = %52, %49
  %62 = load ptr, ptr %17, align 8
  %63 = icmp ne ptr %62, null
  br i1 %63, label %64, label %73

64:                                               ; preds = %61
  %65 = load ptr, ptr %14, align 8
  %66 = getelementptr inbounds %struct.png_info_def, ptr %65, i32 0, i32 16
  %67 = getelementptr inbounds %struct.png_colorspace, ptr %66, i32 0, i32 2
  %68 = getelementptr inbounds %struct.png_XYZ, ptr %67, i32 0, i32 2
  %69 = load i32, ptr %68, align 4
  %70 = sitofp i32 %69 to double
  %71 = fmul double 1.000000e-05, %70
  %72 = load ptr, ptr %17, align 8
  store double %71, ptr %72, align 8
  br label %73

73:                                               ; preds = %64, %61
  %74 = load ptr, ptr %18, align 8
  %75 = icmp ne ptr %74, null
  br i1 %75, label %76, label %85

76:                                               ; preds = %73
  %77 = load ptr, ptr %14, align 8
  %78 = getelementptr inbounds %struct.png_info_def, ptr %77, i32 0, i32 16
  %79 = getelementptr inbounds %struct.png_colorspace, ptr %78, i32 0, i32 2
  %80 = getelementptr inbounds %struct.png_XYZ, ptr %79, i32 0, i32 3
  %81 = load i32, ptr %80, align 4
  %82 = sitofp i32 %81 to double
  %83 = fmul double 1.000000e-05, %82
  %84 = load ptr, ptr %18, align 8
  store double %83, ptr %84, align 8
  br label %85

85:                                               ; preds = %76, %73
  %86 = load ptr, ptr %19, align 8
  %87 = icmp ne ptr %86, null
  br i1 %87, label %88, label %97

88:                                               ; preds = %85
  %89 = load ptr, ptr %14, align 8
  %90 = getelementptr inbounds %struct.png_info_def, ptr %89, i32 0, i32 16
  %91 = getelementptr inbounds %struct.png_colorspace, ptr %90, i32 0, i32 2
  %92 = getelementptr inbounds %struct.png_XYZ, ptr %91, i32 0, i32 4
  %93 = load i32, ptr %92, align 4
  %94 = sitofp i32 %93 to double
  %95 = fmul double 1.000000e-05, %94
  %96 = load ptr, ptr %19, align 8
  store double %95, ptr %96, align 8
  br label %97

97:                                               ; preds = %88, %85
  %98 = load ptr, ptr %20, align 8
  %99 = icmp ne ptr %98, null
  br i1 %99, label %100, label %109

100:                                              ; preds = %97
  %101 = load ptr, ptr %14, align 8
  %102 = getelementptr inbounds %struct.png_info_def, ptr %101, i32 0, i32 16
  %103 = getelementptr inbounds %struct.png_colorspace, ptr %102, i32 0, i32 2
  %104 = getelementptr inbounds %struct.png_XYZ, ptr %103, i32 0, i32 5
  %105 = load i32, ptr %104, align 4
  %106 = sitofp i32 %105 to double
  %107 = fmul double 1.000000e-05, %106
  %108 = load ptr, ptr %20, align 8
  store double %107, ptr %108, align 8
  br label %109

109:                                              ; preds = %100, %97
  %110 = load ptr, ptr %21, align 8
  %111 = icmp ne ptr %110, null
  br i1 %111, label %112, label %121

112:                                              ; preds = %109
  %113 = load ptr, ptr %14, align 8
  %114 = getelementptr inbounds %struct.png_info_def, ptr %113, i32 0, i32 16
  %115 = getelementptr inbounds %struct.png_colorspace, ptr %114, i32 0, i32 2
  %116 = getelementptr inbounds %struct.png_XYZ, ptr %115, i32 0, i32 6
  %117 = load i32, ptr %116, align 4
  %118 = sitofp i32 %117 to double
  %119 = fmul double 1.000000e-05, %118
  %120 = load ptr, ptr %21, align 8
  store double %119, ptr %120, align 8
  br label %121

121:                                              ; preds = %112, %109
  %122 = load ptr, ptr %22, align 8
  %123 = icmp ne ptr %122, null
  br i1 %123, label %124, label %133

124:                                              ; preds = %121
  %125 = load ptr, ptr %14, align 8
  %126 = getelementptr inbounds %struct.png_info_def, ptr %125, i32 0, i32 16
  %127 = getelementptr inbounds %struct.png_colorspace, ptr %126, i32 0, i32 2
  %128 = getelementptr inbounds %struct.png_XYZ, ptr %127, i32 0, i32 7
  %129 = load i32, ptr %128, align 4
  %130 = sitofp i32 %129 to double
  %131 = fmul double 1.000000e-05, %130
  %132 = load ptr, ptr %22, align 8
  store double %131, ptr %132, align 8
  br label %133

133:                                              ; preds = %124, %121
  %134 = load ptr, ptr %23, align 8
  %135 = icmp ne ptr %134, null
  br i1 %135, label %136, label %145

136:                                              ; preds = %133
  %137 = load ptr, ptr %14, align 8
  %138 = getelementptr inbounds %struct.png_info_def, ptr %137, i32 0, i32 16
  %139 = getelementptr inbounds %struct.png_colorspace, ptr %138, i32 0, i32 2
  %140 = getelementptr inbounds %struct.png_XYZ, ptr %139, i32 0, i32 8
  %141 = load i32, ptr %140, align 4
  %142 = sitofp i32 %141 to double
  %143 = fmul double 1.000000e-05, %142
  %144 = load ptr, ptr %23, align 8
  store double %143, ptr %144, align 8
  br label %145

145:                                              ; preds = %136, %133
  store i32 4, ptr %12, align 4
  br label %147

146:                                              ; preds = %29, %26, %11
  store i32 0, ptr %12, align 4
  br label %147

147:                                              ; preds = %146, %145
  %148 = load i32, ptr %12, align 4
  ret i32 %148
}