; Function Attrs: mustprogress nofree norecurse nosync nounwind willreturn memory(argmem: readwrite) uwtable
define range(i32 0, 5) i32 @png_get_cHRM_XYZ(ptr noalias noundef readnone %0, ptr noalias noundef readonly %1, ptr noundef writeonly %2, ptr noundef writeonly %3, ptr noundef writeonly %4, ptr noundef writeonly %5, ptr noundef writeonly %6, ptr noundef writeonly %7, ptr noundef writeonly %8, ptr noundef writeonly %9, ptr noundef writeonly %10) local_unnamed_addr #3 {
  %12 = icmp ne ptr %0, null
  %13 = icmp ne ptr %1, null
  %or.cond = and i1 %12, %13
  br i1 %or.cond, label %14, label %72

14:                                               ; preds = %11
  %15 = getelementptr inbounds i8, ptr %1, i64 126
  %16 = load i16, ptr %15, align 2
  %17 = and i16 %16, 2
  %.not = icmp eq i16 %17, 0
  br i1 %.not, label %72, label %18

18:                                               ; preds = %14
  %.not41 = icmp eq ptr %2, null
  br i1 %.not41, label %24, label %19

19:                                               ; preds = %18
  %20 = getelementptr inbounds i8, ptr %1, i64 88
  %21 = load i32, ptr %20, align 4
  %22 = sitofp i32 %21 to double
  %23 = fmul double %22, 1.000000e-05
  store double %23, ptr %2, align 8
  br label %24

24:                                               ; preds = %19, %18
  %.not42 = icmp eq ptr %3, null
  br i1 %.not42, label %30, label %25

25:                                               ; preds = %24
  %26 = getelementptr inbounds i8, ptr %1, i64 92
  %27 = load i32, ptr %26, align 4
  %28 = sitofp i32 %27 to double
  %29 = fmul double %28, 1.000000e-05
  store double %29, ptr %3, align 8
  br label %30

30:                                               ; preds = %25, %24
  %.not43 = icmp eq ptr %4, null
  br i1 %.not43, label %36, label %31

31:                                               ; preds = %30
  %32 = getelementptr inbounds i8, ptr %1, i64 96
  %33 = load i32, ptr %32, align 4
  %34 = sitofp i32 %33 to double
  %35 = fmul double %34, 1.000000e-05
  store double %35, ptr %4, align 8
  br label %36

36:                                               ; preds = %31, %30
  %.not44 = icmp eq ptr %5, null
  br i1 %.not44, label %42, label %37

37:                                               ; preds = %36
  %38 = getelementptr inbounds i8, ptr %1, i64 100
  %39 = load i32, ptr %38, align 4
  %40 = sitofp i32 %39 to double
  %41 = fmul double %40, 1.000000e-05
  store double %41, ptr %5, align 8
  br label %42

42:                                               ; preds = %37, %36
  %.not45 = icmp eq ptr %6, null
  br i1 %.not45, label %48, label %43

43:                                               ; preds = %42
  %44 = getelementptr inbounds i8, ptr %1, i64 104
  %45 = load i32, ptr %44, align 4
  %46 = sitofp i32 %45 to double
  %47 = fmul double %46, 1.000000e-05
  store double %47, ptr %6, align 8
  br label %48

48:                                               ; preds = %43, %42
  %.not46 = icmp eq ptr %7, null
  br i1 %.not46, label %54, label %49

49:                                               ; preds = %48
  %50 = getelementptr inbounds i8, ptr %1, i64 108
  %51 = load i32, ptr %50, align 4
  %52 = sitofp i32 %51 to double
  %53 = fmul double %52, 1.000000e-05
  store double %53, ptr %7, align 8
  br label %54

54:                                               ; preds = %49, %48
  %.not47 = icmp eq ptr %8, null
  br i1 %.not47, label %60, label %55

55:                                               ; preds = %54
  %56 = getelementptr inbounds i8, ptr %1, i64 112
  %57 = load i32, ptr %56, align 4
  %58 = sitofp i32 %57 to double
  %59 = fmul double %58, 1.000000e-05
  store double %59, ptr %8, align 8
  br label %60

60:                                               ; preds = %55, %54
  %.not48 = icmp eq ptr %9, null
  br i1 %.not48, label %66, label %61

61:                                               ; preds = %60
  %62 = getelementptr inbounds i8, ptr %1, i64 116
  %63 = load i32, ptr %62, align 4
  %64 = sitofp i32 %63 to double
  %65 = fmul double %64, 1.000000e-05
  store double %65, ptr %9, align 8
  br label %66

66:                                               ; preds = %61, %60
  %.not49 = icmp eq ptr %10, null
  br i1 %.not49, label %72, label %67

67:                                               ; preds = %66
  %68 = getelementptr inbounds i8, ptr %1, i64 120
  %69 = load i32, ptr %68, align 4
  %70 = sitofp i32 %69 to double
  %71 = fmul double %70, 1.000000e-05
  store double %71, ptr %10, align 8
  br label %72

72:                                               ; preds = %11, %14, %66, %67
  %.0 = phi i32 [ 4, %67 ], [ 4, %66 ], [ 0, %14 ], [ 0, %11 ]
  ret i32 %.0
}